target datalayout = "e-m:e-p270:32:32-p271:32:32-p272:64:64-i64:64-i128:128-f80:128-n8:16:32:64-S128"
target triple = "x86_64-pc-linux-gnu"

%"struct.open_spiel::GameType" = type <{ %"class.std::__cxx11::basic_string", %"class.std::__cxx11::basic_string", i32, i32, i32, i32, i32, i32, i32, i8, i8, i8, i8, %"class.std::map", i8, i8, [6 x i8] }>
%"class.std::__cxx11::basic_string" = type { %"struct.std::__cxx11::basic_string<char>::_Alloc_hider", i64, %union.anon }
%"struct.std::__cxx11::basic_string<char>::_Alloc_hider" = type { ptr }
%union.anon = type { i64, [8 x i8] }
%"class.std::map" = type { %"class.std::_Rb_tree" }
%"class.std::_Rb_tree" = type { %"struct.std::_Rb_tree<std::__cxx11::basic_string<char>, std::pair<const std::__cxx11::basic_string<char>, open_spiel::GameParameter>, std::_Select1st<std::pair<const std::__cxx11::basic_string<char>, open_spiel::GameParameter>>, std::less<std::__cxx11::basic_string<char>>>::_Rb_tree_impl" }
%"struct.std::_Rb_tree<std::__cxx11::basic_string<char>, std::pair<const std::__cxx11::basic_string<char>, open_spiel::GameParameter>, std::_Select1st<std::pair<const std::__cxx11::basic_string<char>, open_spiel::GameParameter>>, std::less<std::__cxx11::basic_string<char>>>::_Rb_tree_impl" = type { [8 x i8], %"struct.std::_Rb_tree_header" }
%"struct.std::_Rb_tree_header" = type { %"struct.std::_Rb_tree_node_base", i64 }
%"struct.std::_Rb_tree_node_base" = type { i32, ptr, ptr, ptr }
%"class.open_spiel::battleship::BattleshipGame" = type { %"class.open_spiel::Game", %"struct.open_spiel::battleship::BattleshipConfiguration" }
%"class.open_spiel::Game" = type { ptr, %"class.std::enable_shared_from_this", %"struct.open_spiel::GameType", %"class.std::map", %"class.std::map", %"class.absl::debian2::Mutex" }
%"class.std::enable_shared_from_this" = type { %"class.std::weak_ptr" }
%"class.std::weak_ptr" = type { %"class.std::__weak_ptr" }
%"class.std::__weak_ptr" = type { ptr, %"class.std::__weak_count" }
%"class.std::__weak_count" = type { ptr }
%"class.absl::debian2::Mutex" = type { %"struct.std::atomic" }
%"struct.std::atomic" = type { %"struct.std::__atomic_base" }
%"struct.std::__atomic_base" = type { i64 }
%"struct.open_spiel::battleship::BattleshipConfiguration" = type { i32, i32, %"class.std::vector.14", i32, i8, double }
%"class.std::vector.14" = type { %"struct.std::_Vector_base.15" }
%"struct.std::_Vector_base.15" = type { %"struct.std::_Vector_base<open_spiel::battleship::Ship, std::allocator<open_spiel::battleship::Ship>>::_Vector_impl" }
%"struct.std::_Vector_base<open_spiel::battleship::Ship, std::allocator<open_spiel::battleship::Ship>>::_Vector_impl" = type { %"struct.std::_Vector_base<open_spiel::battleship::Ship, std::allocator<open_spiel::battleship::Ship>>::_Vector_impl_data" }
%"struct.std::_Vector_base<open_spiel::battleship::Ship, std::allocator<open_spiel::battleship::Ship>>::_Vector_impl_data" = type { ptr, ptr, ptr }
%"class.open_spiel::battleship::CellAndDirection" = type { i32, %"struct.open_spiel::battleship::Cell" }
%"struct.open_spiel::battleship::Cell" = type { i32, i32 }

; Function Attrs: mustprogress nounwind uwtable
define i64 @_ZNK10open_spiel10battleship14BattleshipGame21DeserializeShotActionEl(ptr noundef nonnull align 8 dereferenceable(328) %0, i64 noundef %1) #5 align 2 {
  %3 = alloca %"struct.open_spiel::battleship::Cell", align 4
  %4 = alloca ptr, align 8
  %5 = alloca i64, align 8
  store ptr %0, ptr %4, align 8
  store i64 %1, ptr %5, align 8
  %6 = load ptr, ptr %4, align 8
  %7 = getelementptr inbounds nuw %"struct.open_spiel::battleship::Cell", ptr %3, i32 0, i32 0
  %8 = load i64, ptr %5, align 8
  %9 = getelementptr inbounds nuw %"class.open_spiel::battleship::BattleshipGame", ptr %6, i32 0, i32 1
  %10 = getelementptr inbounds nuw %"struct.open_spiel::battleship::BattleshipConfiguration", ptr %9, i32 0, i32 0
  %11 = load i32, ptr %10, align 8
  %12 = sext i32 %11 to i64
  %13 = sdiv i64 %8, %12
  %14 = trunc i64 %13 to i32
  store i32 %14, ptr %7, align 4
  %15 = getelementptr inbounds nuw %"struct.open_spiel::battleship::Cell", ptr %3, i32 0, i32 1
  %16 = load i64, ptr %5, align 8
  %17 = getelementptr inbounds nuw %"class.open_spiel::battleship::BattleshipGame", ptr %6, i32 0, i32 1
  %18 = getelementptr inbounds nuw %"struct.open_spiel::battleship::BattleshipConfiguration", ptr %17, i32 0, i32 0
  %19 = load i32, ptr %18, align 8
  %20 = sext i32 %19 to i64
  %21 = srem i64 %16, %20
  %22 = trunc i64 %21 to i32
  store i32 %22, ptr %15, align 4
  %23 = load i64, ptr %3, align 4
  ret i64 %23
}

; Function Attrs: mustprogress uwtable
define { i64, i32 } @_ZNK10open_spiel10battleship14BattleshipGame30DeserializeShipPlacementActionEl(ptr noundef nonnull align 8 dereferenceable(328) %0, i64 noundef %1) #4 align 2 {
  %3 = alloca %"class.open_spiel::battleship::CellAndDirection", align 4
  %4 = alloca ptr, align 8
  %5 = alloca i64, align 8
  %6 = alloca i32, align 4
  %7 = alloca %"struct.open_spiel::battleship::Cell", align 4
  %8 = alloca %"struct.open_spiel::battleship::Cell", align 4
  %9 = alloca %"struct.open_spiel::battleship::Cell", align 4
  %10 = alloca { i64, i32 }, align 8
  store ptr %0, ptr %4, align 8
  store i64 %1, ptr %5, align 8
  %11 = load ptr, ptr %4, align 8
  %12 = load i64, ptr %5, align 8
  %13 = getelementptr inbounds nuw %"class.open_spiel::battleship::BattleshipGame", ptr %11, i32 0, i32 1
  %14 = getelementptr inbounds nuw %"struct.open_spiel::battleship::BattleshipConfiguration", ptr %13, i32 0, i32 0
  %15 = load i32, ptr %14, align 8
  %16 = mul nsw i32 2, %15
  %17 = getelementptr inbounds nuw %"class.open_spiel::battleship::BattleshipGame", ptr %11, i32 0, i32 1
  %18 = getelementptr inbounds nuw %"struct.open_spiel::battleship::BattleshipConfiguration", ptr %17, i32 0, i32 1
  %19 = load i32, ptr %18, align 4
  %20 = mul nsw i32 %16, %19
  %21 = sext i32 %20 to i64
  %22 = icmp sge i64 %12, %21
  br i1 %22, label %23, label %36

23:                                               ; preds = %2
  store i32 1, ptr %6, align 4
  %24 = load i64, ptr %5, align 8
  %25 = getelementptr inbounds nuw %"class.open_spiel::battleship::BattleshipGame", ptr %11, i32 0, i32 1
  %26 = getelementptr inbounds nuw %"struct.open_spiel::battleship::BattleshipConfiguration", ptr %25, i32 0, i32 0
  %27 = load i32, ptr %26, align 8
  %28 = mul nsw i32 2, %27
  %29 = getelementptr inbounds nuw %"class.open_spiel::battleship::BattleshipGame", ptr %11, i32 0, i32 1
  %30 = getelementptr inbounds nuw %"struct.open_spiel::battleship::BattleshipConfiguration", ptr %29, i32 0, i32 1
  %31 = load i32, ptr %30, align 4
  %32 = mul nsw i32 %28, %31
  %33 = sext i32 %32 to i64
  %34 = sub nsw i64 %24, %33
  %35 = call i64 @_ZNK10open_spiel10battleship14BattleshipGame21DeserializeShotActionEl(ptr noundef nonnull align 8 dereferenceable(328) %11, i64 noundef %34)
  store i64 %35, ptr %8, align 4
  call void @llvm.memcpy.p0.p0.i64(ptr align 4 %7, ptr align 4 %8, i64 8, i1 false)
  br label %48

36:                                               ; preds = %2
  store i32 0, ptr %6, align 4
  %37 = load i64, ptr %5, align 8
  %38 = getelementptr inbounds nuw %"class.open_spiel::battleship::BattleshipGame", ptr %11, i32 0, i32 1
  %39 = getelementptr inbounds nuw %"struct.open_spiel::battleship::BattleshipConfiguration", ptr %38, i32 0, i32 0
  %40 = load i32, ptr %39, align 8
  %41 = getelementptr inbounds nuw %"class.open_spiel::battleship::BattleshipGame", ptr %11, i32 0, i32 1
  %42 = getelementptr inbounds nuw %"struct.open_spiel::battleship::BattleshipConfiguration", ptr %41, i32 0, i32 1
  %43 = load i32, ptr %42, align 4
  %44 = mul nsw i32 %40, %43
  %45 = sext i32 %44 to i64
  %46 = sub nsw i64 %37, %45
  %47 = call i64 @_ZNK10open_spiel10battleship14BattleshipGame21DeserializeShotActionEl(ptr noundef nonnull align 8 dereferenceable(328) %11, i64 noundef %46)
  store i64 %47, ptr %9, align 4
  call void @llvm.memcpy.p0.p0.i64(ptr align 4 %7, ptr align 4 %9, i64 8, i1 false)
  br label %48

48:                                               ; preds = %36, %23
  %49 = load i32, ptr %6, align 4
  call void @_ZN10open_spiel10battleship16CellAndDirectionC1ENS1_9DirectionERKNS0_4CellE(ptr noundef nonnull align 4 dereferenceable(12) %3, i32 noundef %49, ptr noundef nonnull align 4 dereferenceable(8) %7)
  call void @llvm.memcpy.p0.p0.i64(ptr align 8 %10, ptr align 4 %3, i64 12, i1 false)
  %50 = load { i64, i32 }, ptr %10, align 8
  ret { i64, i32 } %50
}