; Function Attrs: mustprogress uwtable
define { i64, i32 } @_ZNK10open_spiel10battleship14BattleshipGame30DeserializeShipPlacementActionEl(ptr noundef nonnull readonly align 8 captures(none) dereferenceable(328) %0, i64 noundef %1) local_unnamed_addr #3 align 2 {
  %3 = alloca %"class.open_spiel::battleship::CellAndDirection", align 8
  %4 = alloca %"struct.open_spiel::battleship::Cell", align 8
  %5 = getelementptr inbounds nuw i8, ptr %0, i64 280
  %6 = load i32, ptr %5, align 8
  %7 = shl nsw i32 %6, 1
  %8 = getelementptr inbounds nuw i8, ptr %0, i64 284
  %9 = load i32, ptr %8, align 4
  %10 = mul nsw i32 %7, %9
  %11 = sext i32 %10 to i64
  %.not = icmp sge i64 %1, %11
  %12 = mul nsw i32 %9, %6
  %13 = sext i32 %12 to i64
  %.sink = select i1 %.not, i64 %11, i64 %13
  %.0 = zext i1 %.not to i32
  %14 = sub nsw i64 %1, %.sink
  %15 = sext i32 %6 to i64
  %16 = sdiv i64 %14, %15
  %17 = srem i64 %14, %15
  %.sroa.2.0.insert.ext.i8 = shl nsw i64 %17, 32
  %.sroa.0.0.insert.ext.i9 = and i64 %16, 4294967295
  %.sroa.0.0.insert.insert.i10 = or disjoint i64 %.sroa.2.0.insert.ext.i8, %.sroa.0.0.insert.ext.i9
  store i64 %.sroa.0.0.insert.insert.i10, ptr %4, align 8
  call void @_ZN10open_spiel10battleship16CellAndDirectionC1ENS1_9DirectionERKNS0_4CellE(ptr noundef nonnull align 4 dereferenceable(12) %3, i32 noundef %.0, ptr noundef nonnull align 4 dereferenceable(8) %4)
  %.sroa.0.0.copyload = load i64, ptr %3, align 8
  %.sroa.2.0..sroa_idx = getelementptr inbounds nuw i8, ptr %3, i64 8
  %.sroa.2.0.copyload = load i32, ptr %.sroa.2.0..sroa_idx, align 8
  %.fca.0.insert = insertvalue { i64, i32 } poison, i64 %.sroa.0.0.copyload, 0
  %.fca.1.insert = insertvalue { i64, i32 } %.fca.0.insert, i32 %.sroa.2.0.copyload, 1
  ret { i64, i32 } %.fca.1.insert
}